; Function Attrs: nounwind uwtable
define internal fastcc noalias nonnull ptr @_init_l_Lake_LeanLibConfig___fields___closed__31() unnamed_addr #1 {
  %1 = load ptr, ptr @l_Lake_LeanLibConfig___fields___closed__30, align 8, !tbaa !4
  tail call void @lean_inc_heartbeat() #8
  %2 = tail call noalias ptr @mi_malloc_small(i64 noundef 32) #8
  %3 = icmp eq ptr %2, null
  br i1 %3, label %4, label %lean_alloc_ctor.exit

4:                                                ; preds = %0
  tail call void @lean_internal_panic_out_of_memory() #9
  unreachable

lean_alloc_ctor.exit:                             ; preds = %0
  %5 = getelementptr inbounds nuw i8, ptr %2, i64 4
  %6 = getelementptr inbounds nuw i8, ptr %2, i64 24
  store i64 1, ptr %6, align 8, !tbaa !8
  store i32 1, ptr %2, align 4, !tbaa !10
  store i32 131104, ptr %5, align 4
  %7 = getelementptr inbounds nuw i8, ptr %2, i64 8
  store ptr %1, ptr %7, align 8, !tbaa !4
  %8 = getelementptr inbounds nuw i8, ptr %2, i64 16
  store ptr %1, ptr %8, align 8, !tbaa !4
  ret ptr %2
}